target datalayout = "e-m:e-p270:32:32-p271:32:32-p272:64:64-i64:64-i128:128-f80:128-n8:16:32:64-S128"
target triple = "x86_64-pc-linux-gnu"

; Function Attrs: nounwind uwtable
define i64 @av_compare_mod(i64 noundef %0, i64 noundef %1, i64 noundef %2) #4 {
  %4 = alloca i64, align 8
  %5 = alloca i64, align 8
  %6 = alloca i64, align 8
  %7 = alloca i64, align 8
  store i64 %0, ptr %4, align 8, !tbaa !4
  store i64 %1, ptr %5, align 8, !tbaa !4
  store i64 %2, ptr %6, align 8, !tbaa !4
  call void @llvm.lifetime.start.p0(i64 8, ptr %7) #11
  %8 = load i64, ptr %4, align 8, !tbaa !4
  %9 = load i64, ptr %5, align 8, !tbaa !4
  %10 = sub i64 %8, %9
  %11 = load i64, ptr %6, align 8, !tbaa !4
  %12 = sub i64 %11, 1
  %13 = and i64 %10, %12
  store i64 %13, ptr %7, align 8, !tbaa !4
  %14 = load i64, ptr %7, align 8, !tbaa !4
  %15 = load i64, ptr %6, align 8, !tbaa !4
  %16 = lshr i64 %15, 1
  %17 = icmp ugt i64 %14, %16
  br i1 %17, label %18, label %22

18:                                               ; preds = %3
  %19 = load i64, ptr %6, align 8, !tbaa !4
  %20 = load i64, ptr %7, align 8, !tbaa !4
  %21 = sub i64 %20, %19
  store i64 %21, ptr %7, align 8, !tbaa !4
  br label %22

22:                                               ; preds = %18, %3
  %23 = load i64, ptr %7, align 8, !tbaa !4
  call void @llvm.lifetime.end.p0(i64 8, ptr %7) #11
  ret i64 %23
}