; Function Attrs: mustprogress nofree norecurse nosync nounwind willreturn memory(none) uwtable
define noundef i64 @av_compare_mod(i64 noundef %0, i64 noundef %1, i64 noundef %2) local_unnamed_addr #0 {
  %4 = sub i64 %0, %1
  %5 = add i64 %2, -1
  %6 = and i64 %5, %4
  %7 = lshr i64 %2, 1
  %8 = icmp ugt i64 %6, %7
  %9 = select i1 %8, i64 %2, i64 0
  %spec.select = sub i64 %6, %9
  ret i64 %spec.select
}